; Function Attrs: mustprogress nounwind uwtable
define dso_local void @_ZN4llvm12GlobalObjectD2Ev(ptr noundef nonnull align 8 dereferenceable(56) %0) unnamed_addr #1 align 2 {
  %2 = getelementptr inbounds nuw i8, ptr %0, i64 48
  %3 = load ptr, ptr %2, align 8
  %.not.i = icmp eq ptr %3, null
  br i1 %.not.i, label %_ZN4llvm12GlobalObject9setComdatEPNS_6ComdatE.exit, label %4

4:                                                ; preds = %1
  tail call void @_ZN4llvm6Comdat10removeUserEPNS_12GlobalObjectE(ptr noundef nonnull align 8 dereferenceable(64) %3, ptr noundef nonnull %0) #12
  br label %_ZN4llvm12GlobalObject9setComdatEPNS_6ComdatE.exit

_ZN4llvm12GlobalObject9setComdatEPNS_6ComdatE.exit: ; preds = %1, %4
  store ptr null, ptr %2, align 8
  tail call void @_ZNK4llvm8Constant23removeDeadConstantUsersEv(ptr noundef nonnull align 8 dereferenceable(24) %0) #12
  tail call void @_ZN4llvm5ValueD2Ev(ptr noundef nonnull align 8 dereferenceable(24) %0) #12
  ret void
}